; Function Attrs: nounwind uwtable
define hidden noundef ptr @SDL_GetSensorFromID_REAL(i32 noundef %0) local_unnamed_addr #1 {
  %2 = tail call i32 @SDL_AddAtomicInt_REAL(ptr noundef nonnull @SDL_sensor_lock_pending, i32 noundef 1) #9
  %3 = load ptr, ptr @SDL_sensor_lock, align 8
  tail call void @SDL_LockMutex_REAL(ptr noundef %3) #9
  %4 = tail call i32 @SDL_AddAtomicInt_REAL(ptr noundef nonnull @SDL_sensor_lock_pending, i32 noundef -1) #9
  %5 = load i32, ptr @SDL_sensors_locked, align 4
  %6 = add nsw i32 %5, 1
  store i32 %6, ptr @SDL_sensors_locked, align 4
  %.04 = load ptr, ptr @SDL_sensors, align 8
  %.not5 = icmp eq ptr %.04, null
  br i1 %.not5, label %._crit_edge, label %.lr.ph

.lr.ph:                                           ; preds = %1, %9
  %.06 = phi ptr [ %.0, %9 ], [ %.04, %1 ]
  %7 = load i32, ptr %.06, align 8
  %8 = icmp eq i32 %7, %0
  br i1 %8, label %._crit_edge, label %9

9:                                                ; preds = %.lr.ph
  %10 = getelementptr inbounds nuw i8, ptr %.06, i64 112
  %.0 = load ptr, ptr %10, align 8
  %.not = icmp eq ptr %.0, null
  br i1 %.not, label %._crit_edge, label %.lr.ph, !llvm.loop !8

._crit_edge:                                      ; preds = %9, %.lr.ph, %1
  %.0.lcssa = phi ptr [ null, %1 ], [ %.06, %.lr.ph ], [ null, %9 ]
  store i32 %5, ptr @SDL_sensors_locked, align 4
  %.b4.i = load i1, ptr @SDL_sensors_initialized, align 1
  %11 = icmp ne i32 %5, 0
  %or.cond.i = select i1 %.b4.i, i1 true, i1 %11
  br i1 %or.cond.i, label %.critedge.i, label %12

12:                                               ; preds = %._crit_edge
  %13 = tail call i32 @SDL_GetAtomicInt_REAL(ptr noundef nonnull @SDL_sensor_lock_pending) #9
  %14 = icmp eq i32 %13, 0
  br i1 %14, label %15, label %.critedge.i

15:                                               ; preds = %12
  %16 = load ptr, ptr @SDL_sensor_lock, align 8
  tail call void @SDL_LockMutex_REAL(ptr noundef %16) #9
  %17 = load ptr, ptr @SDL_sensor_lock, align 8
  tail call void @SDL_UnlockMutex_REAL(ptr noundef %17) #9
  store ptr null, ptr @SDL_sensor_lock, align 8
  tail call void @SDL_UnlockMutex_REAL(ptr noundef %16) #9
  tail call void @SDL_DestroyMutex_REAL(ptr noundef %16) #9
  br label %SDL_UnlockSensors.exit

.critedge.i:                                      ; preds = %12, %._crit_edge
  %18 = load ptr, ptr @SDL_sensor_lock, align 8
  tail call void @SDL_UnlockMutex_REAL(ptr noundef %18) #9
  br label %SDL_UnlockSensors.exit

SDL_UnlockSensors.exit:                           ; preds = %15, %.critedge.i
  ret ptr %.0.lcssa
}